; Function Attrs: nounwind uwtable
define i32 @idaLsPSolve(ptr noundef %0, ptr noundef %1, ptr noundef %2, double noundef %3, i32 %4) #0 {
  %6 = icmp eq ptr %0, null
  br i1 %6, label %7, label %8

7:                                                ; preds = %5
  tail call void (ptr, i32, i32, ptr, ptr, ptr, ...) @IDAProcessError(ptr noundef null, i32 noundef -1, i32 noundef 1766, ptr noundef nonnull @__func__.idaLsPSolve, ptr noundef nonnull @.str, ptr noundef nonnull @.str.1) #13
  br label %idaLs_AccessLMem.exit.thread

8:                                                ; preds = %5
  %9 = getelementptr inbounds nuw i8, ptr %0, i64 1048
  %10 = load ptr, ptr %9, align 8, !tbaa !65
  %11 = icmp eq ptr %10, null
  br i1 %11, label %12, label %idaLs_AccessLMem.exit

12:                                               ; preds = %8
  tail call void (ptr, i32, i32, ptr, ptr, ptr, ...) @IDAProcessError(ptr noundef nonnull %0, i32 noundef -2, i32 noundef 1773, ptr noundef nonnull @__func__.idaLsPSolve, ptr noundef nonnull @.str, ptr noundef nonnull @.str.30) #13
  br label %idaLs_AccessLMem.exit.thread

idaLs_AccessLMem.exit:                            ; preds = %8
  %13 = getelementptr inbounds nuw i8, ptr %10, i64 264
  %14 = load ptr, ptr %13, align 8, !tbaa !108
  %15 = getelementptr inbounds nuw i8, ptr %0, i64 680
  %16 = load double, ptr %15, align 8, !tbaa !77
  %17 = getelementptr inbounds nuw i8, ptr %10, i64 72
  %18 = load ptr, ptr %17, align 8, !tbaa !72
  %19 = getelementptr inbounds nuw i8, ptr %10, i64 80
  %20 = load ptr, ptr %19, align 8, !tbaa !73
  %21 = getelementptr inbounds nuw i8, ptr %10, i64 88
  %22 = load ptr, ptr %21, align 8, !tbaa !74
  %23 = getelementptr inbounds nuw i8, ptr %0, i64 696
  %24 = load double, ptr %23, align 8, !tbaa !80
  %25 = getelementptr inbounds nuw i8, ptr %10, i64 280
  %26 = load ptr, ptr %25, align 8, !tbaa !54
  %27 = tail call i32 %14(double noundef %16, ptr noundef %18, ptr noundef %20, ptr noundef %22, ptr noundef %1, ptr noundef %2, double noundef %24, double noundef %3, ptr noundef %26) #13
  %28 = getelementptr inbounds nuw i8, ptr %10, i64 152
  %29 = load i64, ptr %28, align 8, !tbaa !110
  %30 = add nsw i64 %29, 1
  store i64 %30, ptr %28, align 8, !tbaa !110
  br label %idaLs_AccessLMem.exit.thread

idaLs_AccessLMem.exit.thread:                     ; preds = %12, %7, %idaLs_AccessLMem.exit
  %.0 = phi i32 [ %27, %idaLs_AccessLMem.exit ], [ -2, %12 ], [ -1, %7 ]
  ret i32 %.0
}